target datalayout = "e-m:e-p270:32:32-p271:32:32-p272:64:64-i64:64-i128:128-f80:128-n8:16:32:64-S128"
target triple = "x86_64-pc-linux-gnu"

%"class.std::__cxx11::basic_string" = type { %"struct.std::__cxx11::basic_string<char>::_Alloc_hider", i64, %union.anon }
%"struct.std::__cxx11::basic_string<char>::_Alloc_hider" = type { ptr }
%union.anon = type { i64, [8 x i8] }
%struct.cmGeneratorExpressionDAGChecker = type <{ ptr, ptr, %"class.std::__cxx11::basic_string", %"class.std::map", ptr, %class.cmListFileBacktrace, i32, i8, i8, [2 x i8] }>
%"class.std::map" = type { %"class.std::_Rb_tree" }
%"class.std::_Rb_tree" = type { %"struct.std::_Rb_tree<const cmGeneratorTarget *, std::pair<const cmGeneratorTarget *const, std::set<std::__cxx11::basic_string<char>>>, std::_Select1st<std::pair<const cmGeneratorTarget *const, std::set<std::__cxx11::basic_string<char>>>>, std::less<const cmGeneratorTarget *>>::_Rb_tree_impl" }
%"struct.std::_Rb_tree<const cmGeneratorTarget *, std::pair<const cmGeneratorTarget *const, std::set<std::__cxx11::basic_string<char>>>, std::_Select1st<std::pair<const cmGeneratorTarget *const, std::set<std::__cxx11::basic_string<char>>>>, std::less<const cmGeneratorTarget *>>::_Rb_tree_impl" = type { %"struct.std::_Rb_tree_key_compare", %"struct.std::_Rb_tree_header" }
%"struct.std::_Rb_tree_key_compare" = type { %"struct.std::less" }
%"struct.std::less" = type { i8 }
%"struct.std::_Rb_tree_header" = type { %"struct.std::_Rb_tree_node_base", i64 }
%"struct.std::_Rb_tree_node_base" = type { i32, ptr, ptr, ptr }
%class.cmListFileBacktrace = type { %class.cmConstStack }
%class.cmConstStack = type { %"class.std::shared_ptr" }
%"class.std::shared_ptr" = type { %"class.std::__shared_ptr" }
%"class.std::__shared_ptr" = type { ptr, %"class.std::__shared_count" }
%"class.std::__shared_count" = type { ptr }

; Function Attrs: mustprogress nounwind uwtable
define dso_local noundef ptr @_ZNK31cmGeneratorExpressionDAGChecker3TopEv(ptr noundef nonnull align 8 dereferenceable(126) %0) #5 align 2 {
  %2 = alloca ptr, align 8
  %3 = alloca ptr, align 8
  %4 = alloca ptr, align 8
  store ptr %0, ptr %2, align 8
  %5 = load ptr, ptr %2, align 8
  store ptr %5, ptr %3, align 8
  %6 = getelementptr inbounds %struct.cmGeneratorExpressionDAGChecker, ptr %5, i32 0, i32 0
  %7 = load ptr, ptr %6, align 8
  store ptr %7, ptr %4, align 8
  br label %8

8:                                                ; preds = %11, %1
  %9 = load ptr, ptr %4, align 8
  %10 = icmp ne ptr %9, null
  br i1 %10, label %11, label %16

11:                                               ; preds = %8
  %12 = load ptr, ptr %4, align 8
  store ptr %12, ptr %3, align 8
  %13 = load ptr, ptr %4, align 8
  %14 = getelementptr inbounds %struct.cmGeneratorExpressionDAGChecker, ptr %13, i32 0, i32 0
  %15 = load ptr, ptr %14, align 8
  store ptr %15, ptr %4, align 8
  br label %8, !llvm.loop !5

16:                                               ; preds = %8
  %17 = load ptr, ptr %3, align 8
  ret ptr %17
}

; Function Attrs: mustprogress uwtable
define dso_local noundef zeroext i1 @_ZNK31cmGeneratorExpressionDAGChecker34GetTransitivePropertiesOnlyCMP0131Ev(ptr noundef nonnull align 8 dereferenceable(126) %0) #4 align 2 {
  %2 = alloca ptr, align 8
  store ptr %0, ptr %2, align 8
  %3 = load ptr, ptr %2, align 8
  %4 = call noundef ptr @_ZNK31cmGeneratorExpressionDAGChecker3TopEv(ptr noundef nonnull align 8 dereferenceable(126) %3)
  %5 = getelementptr inbounds %struct.cmGeneratorExpressionDAGChecker, ptr %4, i32 0, i32 8
  %6 = load i8, ptr %5, align 1
  %7 = trunc i8 %6 to i1
  ret i1 %7
}