; Function Attrs: mustprogress nofree norecurse nosync nounwind willreturn memory(read, inaccessiblemem: none) uwtable
define dso_local noundef zeroext i1 @_ZNK31cmGeneratorExpressionDAGChecker34GetTransitivePropertiesOnlyCMP0131Ev(ptr noundef nonnull readonly align 8 captures(none) dereferenceable(126) %0) local_unnamed_addr #6 align 2 {
  br label %2

2:                                                ; preds = %2, %1
  %.05.i = phi ptr [ %0, %1 ], [ %.0.i, %2 ]
  %.0.i = load ptr, ptr %.05.i, align 8
  %.not.i = icmp eq ptr %.0.i, null
  br i1 %.not.i, label %_ZNK31cmGeneratorExpressionDAGChecker3TopEv.exit, label %2, !llvm.loop !5

_ZNK31cmGeneratorExpressionDAGChecker3TopEv.exit: ; preds = %2
  %3 = getelementptr inbounds nuw i8, ptr %.05.i, i64 125
  %4 = load i8, ptr %3, align 1
  %5 = trunc i8 %4 to i1
  ret i1 %5
}